target datalayout = "e-m:e-p270:32:32-p271:32:32-p272:64:64-i64:64-i128:128-f80:128-n8:16:32:64-S128"
target triple = "x86_64-pc-linux-gnu"

%"struct.duckdb_re2::CaseFold" = type { i32, i32, i32 }

; Function Attrs: mustprogress nounwind uwtable
define hidden noundef i32 @_ZN10duckdb_re29ApplyFoldEPKNS_8CaseFoldEi(ptr noundef %0, i32 noundef %1) #0 {
  %3 = alloca i32, align 4
  %4 = alloca ptr, align 8
  %5 = alloca i32, align 4
  store ptr %0, ptr %4, align 8, !tbaa !63
  store i32 %1, ptr %5, align 4, !tbaa !3
  %6 = load ptr, ptr %4, align 8, !tbaa !63
  %7 = getelementptr inbounds nuw %"struct.duckdb_re2::CaseFold", ptr %6, i32 0, i32 2
  %8 = load i32, ptr %7, align 4, !tbaa !69
  switch i32 %8, label %9 [
    i32 1073741824, label %15
    i32 1, label %26
    i32 1073741825, label %36
    i32 -1, label %47
  ]

9:                                                ; preds = %2
  %10 = load i32, ptr %5, align 4, !tbaa !3
  %11 = load ptr, ptr %4, align 8, !tbaa !63
  %12 = getelementptr inbounds nuw %"struct.duckdb_re2::CaseFold", ptr %11, i32 0, i32 2
  %13 = load i32, ptr %12, align 4, !tbaa !69
  %14 = add nsw i32 %10, %13
  store i32 %14, ptr %3, align 4
  br label %57

15:                                               ; preds = %2
  %16 = load i32, ptr %5, align 4, !tbaa !3
  %17 = load ptr, ptr %4, align 8, !tbaa !63
  %18 = getelementptr inbounds nuw %"struct.duckdb_re2::CaseFold", ptr %17, i32 0, i32 0
  %19 = load i32, ptr %18, align 4, !tbaa !65
  %20 = sub nsw i32 %16, %19
  %21 = srem i32 %20, 2
  %22 = icmp ne i32 %21, 0
  br i1 %22, label %23, label %25

23:                                               ; preds = %15
  %24 = load i32, ptr %5, align 4, !tbaa !3
  store i32 %24, ptr %3, align 4
  br label %57

25:                                               ; preds = %15
  br label %26

26:                                               ; preds = %2, %25
  %27 = load i32, ptr %5, align 4, !tbaa !3
  %28 = srem i32 %27, 2
  %29 = icmp eq i32 %28, 0
  br i1 %29, label %30, label %33

30:                                               ; preds = %26
  %31 = load i32, ptr %5, align 4, !tbaa !3
  %32 = add nsw i32 %31, 1
  store i32 %32, ptr %3, align 4
  br label %57

33:                                               ; preds = %26
  %34 = load i32, ptr %5, align 4, !tbaa !3
  %35 = sub nsw i32 %34, 1
  store i32 %35, ptr %3, align 4
  br label %57

36:                                               ; preds = %2
  %37 = load i32, ptr %5, align 4, !tbaa !3
  %38 = load ptr, ptr %4, align 8, !tbaa !63
  %39 = getelementptr inbounds nuw %"struct.duckdb_re2::CaseFold", ptr %38, i32 0, i32 0
  %40 = load i32, ptr %39, align 4, !tbaa !65
  %41 = sub nsw i32 %37, %40
  %42 = srem i32 %41, 2
  %43 = icmp ne i32 %42, 0
  br i1 %43, label %44, label %46

44:                                               ; preds = %36
  %45 = load i32, ptr %5, align 4, !tbaa !3
  store i32 %45, ptr %3, align 4
  br label %57

46:                                               ; preds = %36
  br label %47

47:                                               ; preds = %2, %46
  %48 = load i32, ptr %5, align 4, !tbaa !3
  %49 = srem i32 %48, 2
  %50 = icmp eq i32 %49, 1
  br i1 %50, label %51, label %54

51:                                               ; preds = %47
  %52 = load i32, ptr %5, align 4, !tbaa !3
  %53 = add nsw i32 %52, 1
  store i32 %53, ptr %3, align 4
  br label %57

54:                                               ; preds = %47
  %55 = load i32, ptr %5, align 4, !tbaa !3
  %56 = sub nsw i32 %55, 1
  store i32 %56, ptr %3, align 4
  br label %57

57:                                               ; preds = %54, %51, %44, %33, %30, %23, %9
  %58 = load i32, ptr %3, align 4
  ret i32 %58
}