; Function Attrs: mustprogress nofree norecurse nosync nounwind willreturn memory(argmem: read) uwtable
define hidden noundef i32 @_ZN10duckdb_re29ApplyFoldEPKNS_8CaseFoldEi(ptr noundef readonly captures(none) %0, i32 noundef %1) local_unnamed_addr #13 {
  %3 = getelementptr inbounds nuw i8, ptr %0, i64 8
  %4 = load i32, ptr %3, align 4, !tbaa !56
  switch i32 %4, label %5 [
    i32 1073741824, label %7
    i32 1, label %11
    i32 1073741825, label %18
    i32 -1, label %22
  ]

5:                                                ; preds = %2
  %6 = add nsw i32 %4, %1
  br label %29

7:                                                ; preds = %2
  %8 = load i32, ptr %0, align 4, !tbaa !52
  %9 = sub nsw i32 %1, %8
  %10 = and i32 %9, 1
  %.not15 = icmp eq i32 %10, 0
  br i1 %.not15, label %11, label %29

11:                                               ; preds = %7, %2
  %12 = and i32 %1, 1
  %13 = icmp eq i32 %12, 0
  br i1 %13, label %14, label %16

14:                                               ; preds = %11
  %15 = or disjoint i32 %1, 1
  br label %29

16:                                               ; preds = %11
  %17 = add nsw i32 %1, -1
  br label %29

18:                                               ; preds = %2
  %19 = load i32, ptr %0, align 4, !tbaa !52
  %20 = sub nsw i32 %1, %19
  %21 = and i32 %20, 1
  %.not = icmp eq i32 %21, 0
  br i1 %.not, label %22, label %29

22:                                               ; preds = %18, %2
  %23 = and i32 %1, -2147483647
  %24 = icmp eq i32 %23, 1
  br i1 %24, label %25, label %27

25:                                               ; preds = %22
  %26 = add nuw nsw i32 %1, 1
  br label %29

27:                                               ; preds = %22
  %28 = add nsw i32 %1, -1
  br label %29

29:                                               ; preds = %18, %7, %27, %25, %16, %14, %5
  %.0 = phi i32 [ %6, %5 ], [ %26, %25 ], [ %28, %27 ], [ %15, %14 ], [ %17, %16 ], [ %1, %7 ], [ %1, %18 ]
  ret i32 %.0
}